(dp0
S'Review D'
p1
(dp2
S'out'
p3
(lp4
S'Home'
p5
assS'About'
p6
(dp7
g3
(lp8
g5
assS'Review A'
p9
(dp10
g3
(lp11
g5
assS'Review B'
p12
(dp13
g3
(lp14
g5
assS'Review C'
p15
(dp16
g3
(lp17
g5
assS'External Site D'
p18
(dp19
g3
(lp20
ssS'Product'
p21
(dp22
g3
(lp23
g5
assS'External Site A'
p24
(dp25
g3
(lp26
ssS'Links'
p27
(dp28
g3
(lp29
g5
ag24
aS'External Site B'
p30
aS'External Site C'
p31
ag18
ag9
ag12
ag15
ag1
assg31
(dp32
g3
(lp33
ssg30
(dp34
g3
(lp35
ssg5
(dp36
g3
(lp37
g6
ag21
ag27
ass.